target datalayout = "e-m:e-p270:32:32-p271:32:32-p272:64:64-i64:64-i128:128-f80:128-n8:16:32:64-S128"
target triple = "x86_64-pc-linux-gnu"

%class.params_ref = type { ptr }
%"class.sls::seq_plugin" = type { %"class.sls::plugin.base", %class.seq_util, %class.arith_util, %class.seq_rewriter, %class.th_rewriter, %class.scoped_ptr_vector, %class.indexed_uint_set, i8, i32, %class.vector.6, %class.vector.7, %class.svector.8 }
%"class.sls::plugin.base" = type <{ ptr, ptr, ptr, i32 }>
%class.seq_util = type { ptr, ptr, ptr, i32, [4 x i8], %"class.seq_util::str", %"class.seq_util::rex" }
%"class.seq_util::str" = type <{ ptr, ptr, i32, [4 x i8] }>
%"class.seq_util::rex" = type { ptr, ptr, i32, %class.vector, %class.ref_vector, %"struct.seq_util::rex::info", %"struct.seq_util::rex::info" }
%class.vector = type { ptr }
%class.ref_vector = type { %class.ref_vector_core }
%class.ref_vector_core = type { %class.ref_manager_wrapper, %class.ptr_vector }
%class.ref_manager_wrapper = type { ptr }
%class.ptr_vector = type { %class.vector.0 }
%class.vector.0 = type { ptr }
%"struct.seq_util::rex::info" = type { i32, i8, i32, i32 }
%class.arith_util = type { ptr, ptr }
%class.seq_rewriter = type <{ %class.seq_util, %class.arith_util, %class.bool_rewriter, %class.re2automaton, %"class.seq_rewriter::op_cache", %class.ref_vector, %class.ref_vector, %class.ref_vector, i8, [7 x i8] }>
%class.bool_rewriter = type { ptr, i8, i8, i8, i8, i8, i8, i32, i8, i32, i32, i8, %class.ptr_vector, %class.ptr_vector, %class.svector, %class.svector }
%class.svector = type { %class.vector.1 }
%class.vector.1 = type { ptr }
%class.re2automaton = type { ptr, [8 x i8], %class.seq_util, %class.scoped_ptr, %class.scoped_ptr.2, %class.scoped_ptr.3 }
%class.scoped_ptr = type { ptr }
%class.scoped_ptr.2 = type { ptr }
%class.scoped_ptr.3 = type { ptr }
%"class.seq_rewriter::op_cache" = type { i32, %class.ref_vector, %class.hashtable }
%class.hashtable = type { %class.core_hashtable.base, [4 x i8] }
%class.core_hashtable.base = type <{ ptr, i32, i32, i32 }>
%class.th_rewriter = type { ptr, %class.params_ref }
%class.scoped_ptr_vector = type { %class.ptr_vector.4 }
%class.ptr_vector.4 = type { %class.vector.5 }
%class.vector.5 = type { ptr }
%class.indexed_uint_set = type { i32, %class.svector, %class.svector }
%class.vector.6 = type { ptr }
%class.vector.7 = type { ptr }
%class.svector.8 = type { %class.vector.9 }
%class.vector.9 = type { ptr }
%class.ast = type { i32, i32, i32, i32 }

; Function Attrs: mustprogress nounwind uwtable
define linkonce_odr hidden noundef nonnull align 8 dereferenceable(8) ptr @_ZNK6vectorIPN3sls10seq_plugin4evalELb0EjEixEj(ptr noundef nonnull align 8 dereferenceable(8) %0, i32 noundef %1) #5 comdat align 2 {
  %3 = alloca ptr, align 8
  %4 = alloca i32, align 4
  store ptr %0, ptr %3, align 8, !tbaa !414
  store i32 %1, ptr %4, align 4, !tbaa !130
  %5 = load ptr, ptr %3, align 8
  %6 = getelementptr inbounds nuw %class.vector.5, ptr %5, i32 0, i32 0
  %7 = load ptr, ptr %6, align 8, !tbaa !416
  %8 = load i32, ptr %4, align 4, !tbaa !130
  %9 = zext i32 %8 to i64
  %10 = getelementptr inbounds nuw ptr, ptr %7, i64 %9
  ret ptr %10
}

; Function Attrs: mustprogress uwtable
define linkonce_odr hidden noundef ptr @_ZNK17scoped_ptr_vectorIN3sls10seq_plugin4evalEEixEj(ptr noundef nonnull align 8 dereferenceable(8) %0, i32 noundef %1) #4 comdat align 2 {
  %3 = alloca ptr, align 8
  %4 = alloca i32, align 4
  store ptr %0, ptr %3, align 8, !tbaa !106
  store i32 %1, ptr %4, align 4, !tbaa !130
  %5 = load ptr, ptr %3, align 8
  %6 = getelementptr inbounds nuw %class.scoped_ptr_vector, ptr %5, i32 0, i32 0
  %7 = load i32, ptr %4, align 4, !tbaa !130
  %8 = call noundef nonnull align 8 dereferenceable(8) ptr @_ZNK6vectorIPN3sls10seq_plugin4evalELb0EjEixEj(ptr noundef nonnull align 8 dereferenceable(8) %6, i32 noundef %7)
  %9 = load ptr, ptr %8, align 8, !tbaa !177
  ret ptr %9
}

; Function Attrs: mustprogress nounwind uwtable
define linkonce_odr hidden noundef i32 @_ZNK6vectorIPN3sls10seq_plugin4evalELb0EjE4sizeEv(ptr noundef nonnull align 8 dereferenceable(8) %0) #5 comdat align 2 {
  %2 = alloca i32, align 4
  %3 = alloca ptr, align 8
  store ptr %0, ptr %3, align 8, !tbaa !414
  %4 = load ptr, ptr %3, align 8
  %5 = getelementptr inbounds nuw %class.vector.5, ptr %4, i32 0, i32 0
  %6 = load ptr, ptr %5, align 8, !tbaa !416
  %7 = icmp eq ptr %6, null
  br i1 %7, label %8, label %9

8:                                                ; preds = %1
  store i32 0, ptr %2, align 4
  br label %14

9:                                                ; preds = %1
  %10 = getelementptr inbounds nuw %class.vector.5, ptr %4, i32 0, i32 0
  %11 = load ptr, ptr %10, align 8, !tbaa !416
  %12 = getelementptr inbounds i32, ptr %11, i64 -1
  %13 = load i32, ptr %12, align 4, !tbaa !130
  store i32 %13, ptr %2, align 4
  br label %14

14:                                               ; preds = %9, %8
  %15 = load i32, ptr %2, align 4
  ret i32 %15
}

; Function Attrs: mustprogress uwtable
define linkonce_odr hidden noundef ptr @_ZNK17scoped_ptr_vectorIN3sls10seq_plugin4evalEE3getEjPS2_(ptr noundef nonnull align 8 dereferenceable(8) %0, i32 noundef %1, ptr noundef %2) #4 comdat align 2 {
  %4 = alloca ptr, align 8
  %5 = alloca i32, align 4
  %6 = alloca ptr, align 8
  store ptr %0, ptr %4, align 8, !tbaa !106
  store i32 %1, ptr %5, align 4, !tbaa !130
  store ptr %2, ptr %6, align 8, !tbaa !177
  %7 = load ptr, ptr %4, align 8
  %8 = load i32, ptr %5, align 4, !tbaa !130
  %9 = icmp ule i32 0, %8
  br i1 %9, label %10, label %18

10:                                               ; preds = %3
  %11 = load i32, ptr %5, align 4, !tbaa !130
  %12 = getelementptr inbounds nuw %class.scoped_ptr_vector, ptr %7, i32 0, i32 0
  %13 = call noundef i32 @_ZNK6vectorIPN3sls10seq_plugin4evalELb0EjE4sizeEv(ptr noundef nonnull align 8 dereferenceable(8) %12)
  %14 = icmp ult i32 %11, %13
  br i1 %14, label %15, label %18

15:                                               ; preds = %10
  %16 = load i32, ptr %5, align 4, !tbaa !130
  %17 = call noundef ptr @_ZNK17scoped_ptr_vectorIN3sls10seq_plugin4evalEEixEj(ptr noundef nonnull align 8 dereferenceable(8) %7, i32 noundef %16)
  br label %20

18:                                               ; preds = %10, %3
  %19 = load ptr, ptr %6, align 8, !tbaa !177
  br label %20

20:                                               ; preds = %18, %15
  %21 = phi ptr [ %17, %15 ], [ %19, %18 ]
  ret ptr %21
}

; Function Attrs: mustprogress nounwind uwtable
define linkonce_odr hidden noundef i32 @_ZNK3ast6get_idEv(ptr noundef nonnull align 4 dereferenceable(16) %0) #5 comdat align 2 {
  %2 = alloca ptr, align 8
  store ptr %0, ptr %2, align 8, !tbaa !182
  %3 = load ptr, ptr %2, align 8
  %4 = getelementptr inbounds nuw %class.ast, ptr %3, i32 0, i32 0
  %5 = load i32, ptr %4, align 4, !tbaa !190
  ret i32 %5
}

; Function Attrs: mustprogress uwtable
define hidden noundef ptr @_ZNK3sls10seq_plugin8get_evalEP4expr(ptr noundef nonnull align 8 dereferenceable(768) %0, ptr noundef %1) #4 align 2 {
  %3 = alloca ptr, align 8
  %4 = alloca ptr, align 8
  %5 = alloca i32, align 4
  store ptr %0, ptr %3, align 8, !tbaa !3
  store ptr %1, ptr %4, align 8, !tbaa !128
  %6 = load ptr, ptr %3, align 8
  call void @llvm.lifetime.start.p0(i64 4, ptr %5) #3
  %7 = load ptr, ptr %4, align 8, !tbaa !128
  %8 = call noundef i32 @_ZNK3ast6get_idEv(ptr noundef nonnull align 4 dereferenceable(16) %7)
  store i32 %8, ptr %5, align 4, !tbaa !130
  %9 = getelementptr inbounds nuw %"class.sls::seq_plugin", ptr %6, i32 0, i32 5
  %10 = load i32, ptr %5, align 4, !tbaa !130
  %11 = call noundef ptr @_ZNK17scoped_ptr_vectorIN3sls10seq_plugin4evalEE3getEjPS2_(ptr noundef nonnull align 8 dereferenceable(8) %9, i32 noundef %10, ptr noundef null)
  call void @llvm.lifetime.end.p0(i64 4, ptr %5) #3
  ret ptr %11
}