; Function Attrs: mustprogress nofree norecurse nosync nounwind willreturn memory(read, inaccessiblemem: none) uwtable
define hidden noundef ptr @_ZNK3sls10seq_plugin8get_evalEP4expr(ptr noundef nonnull readonly align 8 captures(none) dereferenceable(768) %0, ptr noundef readonly captures(none) %1) local_unnamed_addr #11 align 2 {
  %3 = load i32, ptr %1, align 4, !tbaa !207
  %4 = getelementptr inbounds nuw i8, ptr %0, i64 704
  %5 = load ptr, ptr %4, align 8, !tbaa !84
  %6 = icmp eq ptr %5, null
  br i1 %6, label %_ZNK17scoped_ptr_vectorIN3sls10seq_plugin4evalEE3getEjPS2_.exit, label %_ZNK6vectorIPN3sls10seq_plugin4evalELb0EjE4sizeEv.exit.i

_ZNK6vectorIPN3sls10seq_plugin4evalELb0EjE4sizeEv.exit.i: ; preds = %2
  %7 = getelementptr inbounds i8, ptr %5, i64 -4
  %8 = load i32, ptr %7, align 4, !tbaa !130
  %9 = icmp ult i32 %3, %8
  br i1 %9, label %10, label %_ZNK17scoped_ptr_vectorIN3sls10seq_plugin4evalEE3getEjPS2_.exit

10:                                               ; preds = %_ZNK6vectorIPN3sls10seq_plugin4evalELb0EjE4sizeEv.exit.i
  %11 = zext i32 %3 to i64
  %12 = getelementptr inbounds nuw ptr, ptr %5, i64 %11
  %13 = load ptr, ptr %12, align 8, !tbaa !140
  br label %_ZNK17scoped_ptr_vectorIN3sls10seq_plugin4evalEE3getEjPS2_.exit

_ZNK17scoped_ptr_vectorIN3sls10seq_plugin4evalEE3getEjPS2_.exit: ; preds = %2, %_ZNK6vectorIPN3sls10seq_plugin4evalELb0EjE4sizeEv.exit.i, %10
  %14 = phi ptr [ %13, %10 ], [ null, %_ZNK6vectorIPN3sls10seq_plugin4evalELb0EjE4sizeEv.exit.i ], [ null, %2 ]
  ret ptr %14
}